; Function Attrs: nofree nosync nounwind memory(readwrite, inaccessiblemem: none) uwtable
define i32 @Acb_NtkNodeDeref_rec(ptr noundef readonly captures(none) %0, ptr noundef readonly captures(none) %1, i32 noundef %2) local_unnamed_addr #4 {
  %4 = getelementptr i8, ptr %1, i64 120
  %.val20 = load ptr, ptr %4, align 8, !tbaa !23
  %5 = sext i32 %2 to i64
  %6 = getelementptr inbounds i8, ptr %.val20, i64 %5
  %7 = load i8, ptr %6, align 1, !tbaa !24
  %.not = icmp eq i8 %7, 3
  br i1 %.not, label %.critedge, label %8

8:                                                ; preds = %3
  %9 = getelementptr i8, ptr %1, i64 136
  %.val21 = load ptr, ptr %9, align 8, !tbaa !21
  %10 = getelementptr i8, ptr %1, i64 152
  %.val22 = load ptr, ptr %10, align 8, !tbaa !21
  %11 = getelementptr inbounds i32, ptr %.val21, i64 %5
  %12 = load i32, ptr %11, align 4, !tbaa !22
  %13 = sext i32 %12 to i64
  %14 = getelementptr inbounds i32, ptr %.val22, i64 %13
  %15 = load i32, ptr %14, align 4, !tbaa !22
  %16 = icmp sgt i32 %15, 0
  br i1 %16, label %.lr.ph, label %.critedge

.lr.ph:                                           ; preds = %8
  %17 = getelementptr i8, ptr %0, i64 8
  br label %18

18:                                               ; preds = %.lr.ph, %29
  %indvars.iv = phi i64 [ 0, %.lr.ph ], [ %indvars.iv.next, %29 ]
  %.025 = phi i32 [ 1, %.lr.ph ], [ %.1, %29 ]
  %indvars.iv.next = add nuw nsw i64 %indvars.iv, 1
  %19 = getelementptr inbounds nuw i32, ptr %14, i64 %indvars.iv.next
  %20 = load i32, ptr %19, align 4, !tbaa !22
  %.val23 = load ptr, ptr %17, align 8, !tbaa !21
  %21 = sext i32 %20 to i64
  %22 = getelementptr inbounds i32, ptr %.val23, i64 %21
  %23 = load i32, ptr %22, align 4, !tbaa !22
  %24 = add nsw i32 %23, -1
  store i32 %24, ptr %22, align 4, !tbaa !22
  %25 = icmp eq i32 %24, 0
  br i1 %25, label %26, label %29

26:                                               ; preds = %18
  %27 = tail call i32 @Acb_NtkNodeDeref_rec(ptr noundef nonnull %0, ptr noundef %1, i32 noundef %20)
  %28 = add nsw i32 %27, %.025
  br label %29

29:                                               ; preds = %18, %26
  %.1 = phi i32 [ %28, %26 ], [ %.025, %18 ]
  %30 = load i32, ptr %14, align 4, !tbaa !22
  %31 = sext i32 %30 to i64
  %32 = icmp slt i64 %indvars.iv.next, %31
  br i1 %32, label %18, label %.critedge, !llvm.loop !45

.critedge:                                        ; preds = %29, %8, %3
  %.018 = phi i32 [ 0, %3 ], [ 1, %8 ], [ %.1, %29 ]
  ret i32 %.018
}